; Function Attrs: mustprogress nounwind uwtable
define void @_ZN5arrow8internal3UriD2Ev(ptr noundef nonnull align 8 dereferenceable(8) %this) unnamed_addr #7 align 2 {
entry:
  %0 = load ptr, ptr %this, align 8
  %cmp.not.i = icmp eq ptr %0, null
  br i1 %cmp.not.i, label %_ZNSt10unique_ptrIN5arrow8internal3Uri4ImplESt14default_deleteIS3_EED2Ev.exit, label %if.then.i

if.then.i:                                        ; preds = %entry
  tail call void @_ZNKSt14default_deleteIN5arrow8internal3Uri4ImplEEclEPS3_(ptr noundef nonnull align 1 dereferenceable(1) %this, ptr noundef nonnull %0)
  br label %_ZNSt10unique_ptrIN5arrow8internal3Uri4ImplESt14default_deleteIS3_EED2Ev.exit

_ZNSt10unique_ptrIN5arrow8internal3Uri4ImplESt14default_deleteIS3_EED2Ev.exit: ; preds = %entry, %if.then.i
  store ptr null, ptr %this, align 8
  ret void
}